; Function Attrs: nounwind uwtable
define internal void @_blendif_hide_output_channels(ptr readnone captures(none) %0, ptr noundef %1) #0 {
  %3 = getelementptr inbounds nuw i8, ptr %1, i64 776
  %4 = load ptr, ptr %3, align 8, !tbaa !6
  %.not = icmp eq ptr %4, null
  br i1 %.not, label %18, label %5

5:                                                ; preds = %2
  %6 = load i32, ptr %4, align 8, !tbaa !141
  %.not9 = icmp eq i32 %6, 0
  br i1 %.not9, label %18, label %7

7:                                                ; preds = %5
  %8 = getelementptr inbounds nuw i8, ptr %4, i64 8
  %9 = load i32, ptr %8, align 8, !tbaa !142
  %.not10 = icmp eq i32 %9, 0
  br i1 %.not10, label %18, label %10

10:                                               ; preds = %7
  %11 = getelementptr inbounds nuw i8, ptr %4, i64 480
  %12 = load i32, ptr %11, align 8, !tbaa !73
  %.not11 = icmp eq i32 %12, 0
  br i1 %.not11, label %18, label %13

13:                                               ; preds = %10
  store i32 0, ptr %11, align 8, !tbaa !73
  %14 = tail call fastcc i32 @_blendif_clean_output_channels(ptr noundef nonnull %1)
  %.not12 = icmp eq i32 %14, 0
  br i1 %.not12, label %17, label %15

15:                                               ; preds = %13
  %16 = load ptr, ptr getelementptr inbounds nuw (i8, ptr @darktable, i64 64), align 8, !tbaa !119
  tail call void @dt_dev_add_history_item(ptr noundef %16, ptr noundef nonnull %1, i32 noundef 1) #18
  br label %17

17:                                               ; preds = %15, %13
  tail call void @dt_iop_gui_update(ptr noundef nonnull %1) #18
  br label %18

18:                                               ; preds = %10, %17, %2, %5, %7
  ret void
}